target datalayout = "e-m:e-p270:32:32-p271:32:32-p272:64:64-i64:64-i128:128-f80:128-n8:16:32:64-S128"
target triple = "x86_64-pc-linux-gnu"

%"struct.cv::CvCaptureCAM_V4L" = type <{ %"class.cv::IVideoCapture", i32, i8, i8, [2 x i8], i32, i8, [3 x i8], %"class.std::__cxx11::basic_string", %"class.cv::Mat", i32, i32, i32, i32, i32, i32, i32, i8, i8, [2 x i8], i32, i8, [3 x i8], [11 x %"struct.cv::Buffer"], %struct.v4l2_capability, %struct.v4l2_input, %struct.v4l2_format, %struct.v4l2_requestbuffers, i32, i8, [7 x i8], %struct.timeval, i8, [7 x i8] }>
%"class.cv::IVideoCapture" = type { ptr }
%"class.std::__cxx11::basic_string" = type { %"struct.std::__cxx11::basic_string<char>::_Alloc_hider", i64, %union.anon }
%"struct.std::__cxx11::basic_string<char>::_Alloc_hider" = type { ptr }
%union.anon = type { i64, [8 x i8] }
%"class.cv::Mat" = type { i32, i32, i32, i32, ptr, ptr, ptr, ptr, ptr, ptr, %"struct.cv::MatSize", %"struct.cv::MatStep" }
%"struct.cv::MatSize" = type { ptr }
%"struct.cv::MatStep" = type { ptr, [2 x i64] }
%"struct.cv::Buffer" = type { [8 x %"struct.cv::Memory"], [8 x %struct.v4l2_plane], i32, %struct.v4l2_buffer }
%"struct.cv::Memory" = type { ptr, i64 }
%struct.v4l2_plane = type { i32, i32, %union.anon.0, i32, [11 x i32] }
%union.anon.0 = type { i64 }
%struct.v4l2_buffer = type { i32, i32, i32, i32, i32, %struct.timeval, %struct.v4l2_timecode, i32, i32, %union.anon.1, i32, i32, %union.anon.2 }
%struct.v4l2_timecode = type { i32, i32, i8, i8, i8, i8, [4 x i8] }
%union.anon.1 = type { i64 }
%union.anon.2 = type { i32 }
%struct.v4l2_capability = type { [16 x i8], [32 x i8], [32 x i8], i32, i32, i32, [3 x i32] }
%struct.v4l2_input = type { i32, [32 x i8], i32, i32, i32, i64, i32, i32, [3 x i32] }
%struct.v4l2_format = type { i32, %union.anon.3 }
%union.anon.3 = type { %struct.v4l2_window, [144 x i8] }
%struct.v4l2_window = type { %struct.v4l2_rect, i32, i32, ptr, i32, ptr, i8 }
%struct.v4l2_rect = type { i32, i32, i32, i32 }
%struct.v4l2_requestbuffers = type { i32, i32, i32, i32, [1 x i32] }
%struct.timeval = type { i64, i64 }

; Function Attrs: mustprogress uwtable
define hidden noundef zeroext i1 @_ZN2cv16CvCaptureCAM_V4L10v4l2_resetEv(ptr noundef nonnull align 8 dereferenceable(8736) %0) #4 align 2 {
  %2 = alloca ptr, align 8
  store ptr %0, ptr %2, align 8, !tbaa !3
  %3 = load ptr, ptr %2, align 8
  %4 = call noundef zeroext i1 @_ZN2cv16CvCaptureCAM_V4L9streamingEb(ptr noundef nonnull align 8 dereferenceable(8736) %3, i1 noundef zeroext false)
  call void @_ZN2cv16CvCaptureCAM_V4L14releaseBuffersEv(ptr noundef nonnull align 8 dereferenceable(8736) %3)
  %5 = call noundef zeroext i1 @_ZN2cv16CvCaptureCAM_V4L11initCaptureEv(ptr noundef nonnull align 8 dereferenceable(8736) %3)
  ret i1 %5
}

; Function Attrs: mustprogress uwtable
define hidden noundef zeroext i1 @_ZN2cv16CvCaptureCAM_V4L15icvSetFrameSizeEii(ptr noundef nonnull align 8 dereferenceable(8736) %0, i32 noundef %1, i32 noundef %2) #4 align 2 {
  %4 = alloca i1, align 1
  %5 = alloca ptr, align 8
  %6 = alloca i32, align 4
  %7 = alloca i32, align 4
  store ptr %0, ptr %5, align 8, !tbaa !3
  store i32 %1, ptr %6, align 4, !tbaa !58
  store i32 %2, ptr %7, align 4, !tbaa !58
  %8 = load ptr, ptr %5, align 8
  %9 = load i32, ptr %6, align 4, !tbaa !58
  %10 = icmp sgt i32 %9, 0
  br i1 %10, label %11, label %14

11:                                               ; preds = %3
  %12 = load i32, ptr %6, align 4, !tbaa !58
  %13 = getelementptr inbounds nuw %"struct.cv::CvCaptureCAM_V4L", ptr %8, i32 0, i32 13
  store i32 %12, ptr %13, align 4, !tbaa !40
  br label %14

14:                                               ; preds = %11, %3
  %15 = load i32, ptr %7, align 4, !tbaa !58
  %16 = icmp sgt i32 %15, 0
  br i1 %16, label %17, label %20

17:                                               ; preds = %14
  %18 = load i32, ptr %7, align 4, !tbaa !58
  %19 = getelementptr inbounds nuw %"struct.cv::CvCaptureCAM_V4L", ptr %8, i32 0, i32 14
  store i32 %18, ptr %19, align 8, !tbaa !41
  br label %20

20:                                               ; preds = %17, %14
  %21 = getelementptr inbounds nuw %"struct.cv::CvCaptureCAM_V4L", ptr %8, i32 0, i32 13
  %22 = load i32, ptr %21, align 4, !tbaa !40
  %23 = icmp sle i32 %22, 0
  br i1 %23, label %28, label %24

24:                                               ; preds = %20
  %25 = getelementptr inbounds nuw %"struct.cv::CvCaptureCAM_V4L", ptr %8, i32 0, i32 14
  %26 = load i32, ptr %25, align 8, !tbaa !41
  %27 = icmp sle i32 %26, 0
  br i1 %27, label %28, label %29

28:                                               ; preds = %24, %20
  store i1 true, ptr %4, align 1
  br label %39

29:                                               ; preds = %24
  %30 = getelementptr inbounds nuw %"struct.cv::CvCaptureCAM_V4L", ptr %8, i32 0, i32 13
  %31 = load i32, ptr %30, align 4, !tbaa !40
  %32 = getelementptr inbounds nuw %"struct.cv::CvCaptureCAM_V4L", ptr %8, i32 0, i32 11
  store i32 %31, ptr %32, align 4, !tbaa !38
  %33 = getelementptr inbounds nuw %"struct.cv::CvCaptureCAM_V4L", ptr %8, i32 0, i32 14
  %34 = load i32, ptr %33, align 8, !tbaa !41
  %35 = getelementptr inbounds nuw %"struct.cv::CvCaptureCAM_V4L", ptr %8, i32 0, i32 12
  store i32 %34, ptr %35, align 8, !tbaa !39
  %36 = getelementptr inbounds nuw %"struct.cv::CvCaptureCAM_V4L", ptr %8, i32 0, i32 14
  store i32 0, ptr %36, align 8, !tbaa !41
  %37 = getelementptr inbounds nuw %"struct.cv::CvCaptureCAM_V4L", ptr %8, i32 0, i32 13
  store i32 0, ptr %37, align 4, !tbaa !40
  %38 = call noundef zeroext i1 @_ZN2cv16CvCaptureCAM_V4L10v4l2_resetEv(ptr noundef nonnull align 8 dereferenceable(8736) %8)
  store i1 %38, ptr %4, align 1
  br label %39

39:                                               ; preds = %29, %28
  %40 = load i1, ptr %4, align 1
  ret i1 %40
}