; Function Attrs: mustprogress uwtable
define hidden noundef zeroext i1 @_ZN2cv16CvCaptureCAM_V4L15icvSetFrameSizeEii(ptr noundef nonnull align 8 dereferenceable(8736) %0, i32 noundef %1, i32 noundef %2) local_unnamed_addr #5 align 2 {
  %4 = icmp sgt i32 %1, 0
  br i1 %4, label %5, label %7

5:                                                ; preds = %3
  %6 = getelementptr inbounds nuw i8, ptr %0, i64 164
  store i32 %1, ptr %6, align 4, !tbaa !305
  br label %7

7:                                                ; preds = %5, %3
  %8 = icmp sgt i32 %2, 0
  br i1 %8, label %9, label %11

9:                                                ; preds = %7
  %10 = getelementptr inbounds nuw i8, ptr %0, i64 168
  store i32 %2, ptr %10, align 8, !tbaa !304
  br label %11

11:                                               ; preds = %9, %7
  %12 = getelementptr inbounds nuw i8, ptr %0, i64 164
  %13 = load i32, ptr %12, align 4, !tbaa !305
  %14 = icmp slt i32 %13, 1
  br i1 %14, label %24, label %15

15:                                               ; preds = %11
  %16 = getelementptr inbounds nuw i8, ptr %0, i64 168
  %17 = load i32, ptr %16, align 8, !tbaa !304
  %18 = icmp slt i32 %17, 1
  br i1 %18, label %24, label %19

19:                                               ; preds = %15
  %20 = getelementptr inbounds nuw i8, ptr %0, i64 156
  store i32 %13, ptr %20, align 4, !tbaa !110
  %21 = getelementptr inbounds nuw i8, ptr %0, i64 160
  store i32 %17, ptr %21, align 8, !tbaa !109
  store i32 0, ptr %16, align 8, !tbaa !304
  store i32 0, ptr %12, align 4, !tbaa !305
  %22 = tail call noundef zeroext i1 @_ZN2cv16CvCaptureCAM_V4L9streamingEb(ptr noundef nonnull align 8 dereferenceable(8736) %0, i1 noundef zeroext false)
  tail call void @_ZN2cv16CvCaptureCAM_V4L14releaseBuffersEv(ptr noundef nonnull align 8 dereferenceable(8736) %0)
  %23 = tail call noundef zeroext i1 @_ZN2cv16CvCaptureCAM_V4L11initCaptureEv(ptr noundef nonnull align 8 dereferenceable(8736) %0)
  br label %24

24:                                               ; preds = %11, %15, %19
  %.0 = phi i1 [ %23, %19 ], [ true, %15 ], [ true, %11 ]
  ret i1 %.0
}